; Function Attrs: nounwind uwtable
define internal void @start_pass_main(ptr noundef %0, i32 noundef %1) #0 {
  %3 = getelementptr inbounds i8, ptr %0, i64 552
  %4 = load ptr, ptr %3, align 8
  switch i32 %1, label %78 [
    i32 0, label %5
    i32 2, label %76
  ]

5:                                                ; preds = %2
  %6 = getelementptr inbounds i8, ptr %0, i64 608
  %7 = load ptr, ptr %6, align 8
  %8 = getelementptr inbounds i8, ptr %7, i64 32
  %9 = load i32, ptr %8, align 8
  %.not = icmp eq i32 %9, 0
  %10 = getelementptr inbounds i8, ptr %4, i64 8
  br i1 %.not, label %72, label %11

11:                                               ; preds = %5
  store ptr @process_data_context_main, ptr %10, align 8
  %12 = getelementptr inbounds i8, ptr %0, i64 416
  %13 = load i32, ptr %12, align 8
  %14 = getelementptr inbounds i8, ptr %0, i64 56
  %15 = load i32, ptr %14, align 8
  %16 = icmp sgt i32 %15, 0
  br i1 %16, label %.lr.ph63.i, label %make_funny_pointers.exit

.lr.ph63.i:                                       ; preds = %11
  %17 = getelementptr inbounds i8, ptr %0, i64 304
  %18 = load ptr, ptr %17, align 8
  %19 = load ptr, ptr %3, align 8
  %20 = getelementptr inbounds i8, ptr %19, i64 120
  %21 = getelementptr inbounds i8, ptr %19, i64 128
  %22 = getelementptr inbounds i8, ptr %19, i64 32
  %23 = add nsw i32 %13, 2
  %24 = add nsw i32 %13, -2
  br label %25

25:                                               ; preds = %._crit_edge.i, %.lr.ph63.i
  %indvars.iv76.i = phi i64 [ 0, %.lr.ph63.i ], [ %indvars.iv.next77.i, %._crit_edge.i ]
  %.05260.i = phi ptr [ %18, %.lr.ph63.i ], [ %65, %._crit_edge.i ]
  %26 = getelementptr inbounds i8, ptr %.05260.i, i64 12
  %27 = load i32, ptr %26, align 4
  %28 = getelementptr inbounds i8, ptr %.05260.i, i64 36
  %29 = load i32, ptr %28, align 4
  %30 = mul nsw i32 %29, %27
  %31 = load i32, ptr %12, align 8
  %32 = sdiv i32 %30, %31
  %33 = load ptr, ptr %20, align 8
  %34 = getelementptr inbounds ptr, ptr %33, i64 %indvars.iv76.i
  %35 = load ptr, ptr %34, align 8
  %36 = load ptr, ptr %21, align 8
  %37 = getelementptr inbounds ptr, ptr %36, i64 %indvars.iv76.i
  %38 = load ptr, ptr %37, align 8
  %39 = getelementptr inbounds [10 x ptr], ptr %22, i64 0, i64 %indvars.iv76.i
  %40 = load ptr, ptr %39, align 8
  %41 = mul nsw i32 %32, %23
  %42 = icmp sgt i32 %41, 0
  br i1 %42, label %.lr.ph.preheader.i, label %.preheader54.i

.lr.ph.preheader.i:                               ; preds = %25
  %wide.trip.count.i = zext nneg i32 %41 to i64
  br label %.lr.ph.i

.preheader54.i:                                   ; preds = %.lr.ph.i, %25
  %43 = icmp sgt i32 %32, 0
  br i1 %43, label %.lr.ph57.i, label %._crit_edge.i

.lr.ph57.i:                                       ; preds = %.preheader54.i
  %44 = shl nuw i32 %32, 1
  %45 = mul nsw i32 %32, %13
  %46 = mul nsw i32 %32, %24
  %47 = sext i32 %45 to i64
  %48 = sext i32 %46 to i64
  %smax.i = tail call i32 @llvm.smax.i32(i32 %44, i32 1)
  %wide.trip.count69.i = zext nneg i32 %smax.i to i64
  br label %54

.lr.ph.i:                                         ; preds = %.lr.ph.i, %.lr.ph.preheader.i
  %indvars.iv.i = phi i64 [ 0, %.lr.ph.preheader.i ], [ %indvars.iv.next.i, %.lr.ph.i ]
  %49 = getelementptr inbounds ptr, ptr %40, i64 %indvars.iv.i
  %50 = load ptr, ptr %49, align 8
  %51 = getelementptr inbounds ptr, ptr %38, i64 %indvars.iv.i
  store ptr %50, ptr %51, align 8
  %52 = getelementptr inbounds ptr, ptr %35, i64 %indvars.iv.i
  store ptr %50, ptr %52, align 8
  %indvars.iv.next.i = add nuw nsw i64 %indvars.iv.i, 1
  %exitcond.not.i = icmp eq i64 %indvars.iv.next.i, %wide.trip.count.i
  br i1 %exitcond.not.i, label %.preheader54.i, label %.lr.ph.i, !llvm.loop !7

.lr.ph59.preheader.i:                             ; preds = %54
  %53 = zext nneg i32 %32 to i64
  %.pre.i = load ptr, ptr %35, align 8
  br label %.lr.ph59.i

54:                                               ; preds = %54, %.lr.ph57.i
  %indvars.iv66.i = phi i64 [ 0, %.lr.ph57.i ], [ %indvars.iv.next67.i, %54 ]
  %55 = add nsw i64 %indvars.iv66.i, %47
  %56 = getelementptr inbounds ptr, ptr %40, i64 %55
  %57 = load ptr, ptr %56, align 8
  %58 = add nsw i64 %indvars.iv66.i, %48
  %59 = getelementptr inbounds ptr, ptr %38, i64 %58
  store ptr %57, ptr %59, align 8
  %60 = getelementptr inbounds ptr, ptr %40, i64 %58
  %61 = load ptr, ptr %60, align 8
  %62 = getelementptr inbounds ptr, ptr %38, i64 %55
  store ptr %61, ptr %62, align 8
  %indvars.iv.next67.i = add nuw nsw i64 %indvars.iv66.i, 1
  %exitcond70.not.i = icmp eq i64 %indvars.iv.next67.i, %wide.trip.count69.i
  br i1 %exitcond70.not.i, label %.lr.ph59.preheader.i, label %54, !llvm.loop !8

.lr.ph59.i:                                       ; preds = %.lr.ph59.i, %.lr.ph59.preheader.i
  %indvars.iv71.i = phi i64 [ 0, %.lr.ph59.preheader.i ], [ %indvars.iv.next72.i, %.lr.ph59.i ]
  %63 = sub nsw i64 %indvars.iv71.i, %53
  %64 = getelementptr inbounds ptr, ptr %35, i64 %63
  store ptr %.pre.i, ptr %64, align 8
  %indvars.iv.next72.i = add nuw nsw i64 %indvars.iv71.i, 1
  %exitcond75.not.i = icmp eq i64 %indvars.iv.next72.i, %53
  br i1 %exitcond75.not.i, label %._crit_edge.i, label %.lr.ph59.i, !llvm.loop !9

._crit_edge.i:                                    ; preds = %.lr.ph59.i, %.preheader54.i
  %indvars.iv.next77.i = add nuw nsw i64 %indvars.iv76.i, 1
  %65 = getelementptr inbounds i8, ptr %.05260.i, i64 96
  %66 = load i32, ptr %14, align 8
  %67 = sext i32 %66 to i64
  %68 = icmp slt i64 %indvars.iv.next77.i, %67
  br i1 %68, label %25, label %make_funny_pointers.exit, !llvm.loop !10

make_funny_pointers.exit:                         ; preds = %._crit_edge.i, %11
  %69 = getelementptr inbounds i8, ptr %4, i64 136
  store i32 0, ptr %69, align 8
  %70 = getelementptr inbounds i8, ptr %4, i64 140
  store i32 0, ptr %70, align 4
  %71 = getelementptr inbounds i8, ptr %4, i64 148
  store i32 0, ptr %71, align 4
  br label %73

72:                                               ; preds = %5
  store ptr @process_data_simple_main, ptr %10, align 8
  br label %73

73:                                               ; preds = %72, %make_funny_pointers.exit
  %74 = getelementptr inbounds i8, ptr %4, i64 112
  store i32 0, ptr %74, align 8
  %75 = getelementptr inbounds i8, ptr %4, i64 116
  store i32 0, ptr %75, align 4
  br label %83

76:                                               ; preds = %2
  %77 = getelementptr inbounds i8, ptr %4, i64 8
  store ptr @process_data_crank_post, ptr %77, align 8
  br label %83

78:                                               ; preds = %2
  %79 = load ptr, ptr %0, align 8
  %80 = getelementptr inbounds i8, ptr %79, i64 40
  store i32 4, ptr %80, align 8
  %81 = load ptr, ptr %0, align 8
  %82 = load ptr, ptr %81, align 8
  tail call void %82(ptr noundef nonnull %0) #2
  br label %83

83:                                               ; preds = %78, %76, %73
  ret void
}